; Function Attrs: mustprogress uwtable
define noundef nonnull align 8 dereferenceable(8) ptr @_ZNK4LIEF3ELF19DynamicEntryLibrary5printERSo(ptr noundef nonnull align 8 dereferenceable(56) %0, ptr noundef nonnull returned align 8 dereferenceable(8) %1) unnamed_addr #3 align 2 personality ptr @__gxx_personality_v0 {
  %3 = alloca %"class.fmt::v9::format_arg_store", align 16
  %4 = alloca %"class.std::__cxx11::basic_string", align 8
  %5 = tail call noundef nonnull align 8 dereferenceable(8) ptr @_ZNK4LIEF3ELF12DynamicEntry5printERSo(ptr noundef nonnull align 8 dereferenceable(24) %0, ptr noundef nonnull align 8 dereferenceable(8) %1)
  %6 = getelementptr inbounds i8, ptr %0, i64 24
  %7 = tail call noundef ptr @_ZNKSt7__cxx1112basic_stringIcSt11char_traitsIcESaIcEE4dataEv(ptr noundef nonnull align 8 dereferenceable(32) %6) #19
  %8 = tail call noundef i64 @_ZNKSt7__cxx1112basic_stringIcSt11char_traitsIcESaIcEE4sizeEv(ptr noundef nonnull align 8 dereferenceable(32) %6) #19
  %9 = ptrtoint ptr %7 to i64
  store i64 %9, ptr %3, align 16, !noalias !4
  %10 = getelementptr inbounds i8, ptr %3, i64 8
  store i64 %8, ptr %10, align 8, !noalias !4
  call void @_ZN3fmt2v97vformatB5cxx11ENS0_17basic_string_viewIcEENS0_17basic_format_argsINS0_20basic_format_contextINS0_8appenderEcEEEE(ptr dead_on_unwind nonnull writable sret(%"class.std::__cxx11::basic_string") align 8 %4, ptr nonnull @.str, i64 6, i64 13, ptr nonnull %3)
  %11 = invoke noundef nonnull align 8 dereferenceable(8) ptr @_ZStlsIcSt11char_traitsIcESaIcEERSt13basic_ostreamIT_T0_ES7_RKNSt7__cxx1112basic_stringIS4_S5_T1_EE(ptr noundef nonnull align 8 dereferenceable(8) %1, ptr noundef nonnull align 8 dereferenceable(32) %4)
          to label %12 unwind label %13

12:                                               ; preds = %2
  call void @_ZNSt7__cxx1112basic_stringIcSt11char_traitsIcESaIcEED1Ev(ptr noundef nonnull align 8 dereferenceable(32) %4) #19
  ret ptr %1

13:                                               ; preds = %2
  %14 = landingpad { ptr, i32 }
          cleanup
  call void @_ZNSt7__cxx1112basic_stringIcSt11char_traitsIcESaIcEED1Ev(ptr noundef nonnull align 8 dereferenceable(32) %4) #19
  resume { ptr, i32 } %14
}